; Function Attrs: nounwind uwtable
define range(i32 0, 2) i32 @Abc_NtkToBdd(ptr noundef %0) local_unnamed_addr #2 {
  %2 = getelementptr i8, ptr %0, i64 4
  %.val14 = load i32, ptr %2, align 4, !tbaa !46
  switch i32 %.val14, label %.fold.split [
    i32 6, label %11
    i32 2, label %11
    i32 4, label %3
    i32 1, label %6
    i32 3, label %9
  ]

3:                                                ; preds = %1
  %4 = tail call i32 @Abc_NtkMapToSop(ptr noundef nonnull %0)
  %5 = tail call i32 @Abc_NtkSopToBdd(ptr noundef nonnull %0)
  br label %11

6:                                                ; preds = %1
  %7 = tail call i32 @Abc_NtkSopToAig(ptr noundef nonnull %0)
  %8 = tail call i32 @Abc_NtkAigToBdd(ptr noundef nonnull %0)
  br label %11

9:                                                ; preds = %1
  %10 = tail call i32 @Abc_NtkAigToBdd(ptr noundef nonnull %0)
  br label %11

.fold.split:                                      ; preds = %1
  br label %11

11:                                               ; preds = %1, %1, %.fold.split, %9, %6, %3
  %.0 = phi i32 [ %5, %3 ], [ %8, %6 ], [ %10, %9 ], [ 1, %1 ], [ 1, %1 ], [ 0, %.fold.split ]
  ret i32 %.0
}